; Function Attrs: nofree norecurse nosync nounwind memory(read, argmem: readwrite, inaccessiblemem: none) uwtable
define internal fastcc i64 @jxl_u64(ptr noundef nonnull captures(none) %0) unnamed_addr #4 {
  %2 = getelementptr inbounds nuw i8, ptr %0, i64 16
  %3 = load i32, ptr %2, align 8, !tbaa !15
  %4 = getelementptr inbounds nuw i8, ptr %0, i64 24
  %5 = load i32, ptr %4, align 8, !tbaa !12
  %6 = load ptr, ptr %0, align 8, !tbaa !4
  %7 = lshr i32 %3, 3
  %8 = zext nneg i32 %7 to i64
  %9 = getelementptr inbounds nuw i8, ptr %6, i64 %8
  %10 = load i32, ptr %9, align 1, !tbaa !14
  %11 = and i32 %3, 7
  %12 = lshr i32 %10, %11
  %13 = and i32 %12, 3
  %14 = add i32 %3, 2
  %15 = tail call i32 @llvm.umin.i32(i32 %5, i32 %14)
  store i32 %15, ptr %2, align 8, !tbaa !15
  switch i32 %13, label %default.unreachable [
    i32 1, label %16
    i32 2, label %28
    i32 3, label %40
    i32 0, label %.loopexit
  ]

16:                                               ; preds = %1
  %17 = lshr i32 %15, 3
  %18 = zext nneg i32 %17 to i64
  %19 = getelementptr inbounds nuw i8, ptr %6, i64 %18
  %20 = load i32, ptr %19, align 1, !tbaa !14
  %21 = and i32 %15, 7
  %22 = lshr i32 %20, %21
  %23 = and i32 %22, 15
  %24 = add i32 %15, 4
  %25 = tail call i32 @llvm.umin.i32(i32 %5, i32 %24)
  store i32 %25, ptr %2, align 8, !tbaa !15
  %26 = add nuw nsw i32 %23, 1
  %27 = zext nneg i32 %26 to i64
  br label %.loopexit

28:                                               ; preds = %1
  %29 = lshr i32 %15, 3
  %30 = zext nneg i32 %29 to i64
  %31 = getelementptr inbounds nuw i8, ptr %6, i64 %30
  %32 = load i32, ptr %31, align 1, !tbaa !14
  %33 = and i32 %15, 7
  %34 = lshr i32 %32, %33
  %35 = and i32 %34, 255
  %36 = add i32 %15, 8
  %37 = tail call i32 @llvm.umin.i32(i32 %5, i32 %36)
  store i32 %37, ptr %2, align 8, !tbaa !15
  %38 = add nuw nsw i32 %35, 17
  %39 = zext nneg i32 %38 to i64
  br label %.loopexit

40:                                               ; preds = %1
  %41 = lshr i32 %15, 3
  %42 = zext nneg i32 %41 to i64
  %43 = getelementptr inbounds nuw i8, ptr %6, i64 %42
  %44 = load i32, ptr %43, align 1, !tbaa !14
  %45 = and i32 %15, 7
  %46 = lshr i32 %44, %45
  %47 = and i32 %46, 4095
  %48 = add i32 %15, 12
  %49 = tail call i32 @llvm.umin.i32(i32 %5, i32 %48)
  store i32 %49, ptr %2, align 8, !tbaa !15
  %50 = zext nneg i32 %47 to i64
  %51 = lshr i32 %49, 3
  %52 = zext nneg i32 %51 to i64
  %53 = getelementptr inbounds nuw i8, ptr %6, i64 %52
  %54 = load i8, ptr %53, align 1, !tbaa !14
  %55 = icmp slt i32 %49, %5
  %56 = zext i1 %55 to i32
  %spec.select.i17 = add i32 %49, %56
  %57 = zext i8 %54 to i32
  %58 = and i32 %49, 7
  store i32 %spec.select.i17, ptr %2, align 8, !tbaa !15
  %59 = shl nuw nsw i32 1, %58
  %60 = and i32 %59, %57
  %.not18 = icmp eq i32 %60, 0
  br i1 %.not18, label %.loopexit, label %.lr.ph

.lr.ph:                                           ; preds = %40, %68
  %spec.select.i21 = phi i32 [ %spec.select.i, %68 ], [ %spec.select.i17, %40 ]
  %.120 = phi i64 [ %74, %68 ], [ %50, %40 ]
  %.01319 = phi i64 [ %75, %68 ], [ 12, %40 ]
  %61 = icmp samesign ult i64 %.01319, 60
  %62 = lshr i32 %spec.select.i21, 3
  %63 = zext nneg i32 %62 to i64
  %64 = getelementptr inbounds nuw i8, ptr %6, i64 %63
  %65 = load i32, ptr %64, align 1, !tbaa !14
  %66 = and i32 %spec.select.i21, 7
  %67 = lshr i32 %65, %66
  br i1 %61, label %68, label %86

68:                                               ; preds = %.lr.ph
  %69 = and i32 %67, 255
  %70 = add i32 %spec.select.i21, 8
  %71 = tail call i32 @llvm.umin.i32(i32 %5, i32 %70)
  store i32 %71, ptr %2, align 8, !tbaa !15
  %72 = zext nneg i32 %69 to i64
  %73 = shl i64 %72, %.01319
  %74 = or i64 %73, %.120
  %75 = add nuw nsw i64 %.01319, 8
  %76 = lshr i32 %71, 3
  %77 = zext nneg i32 %76 to i64
  %78 = getelementptr inbounds nuw i8, ptr %6, i64 %77
  %79 = load i8, ptr %78, align 1, !tbaa !14
  %80 = icmp slt i32 %71, %5
  %81 = zext i1 %80 to i32
  %spec.select.i = add i32 %71, %81
  %82 = zext i8 %79 to i32
  %83 = and i32 %71, 7
  store i32 %spec.select.i, ptr %2, align 8, !tbaa !15
  %84 = shl nuw nsw i32 1, %83
  %85 = and i32 %84, %82
  %.not = icmp eq i32 %85, 0
  br i1 %.not, label %.loopexit, label %.lr.ph, !llvm.loop !38

86:                                               ; preds = %.lr.ph
  %87 = and i32 %67, 15
  %88 = add i32 %spec.select.i21, 4
  %89 = tail call i32 @llvm.umin.i32(i32 %5, i32 %88)
  store i32 %89, ptr %2, align 8, !tbaa !15
  %90 = zext nneg i32 %87 to i64
  %91 = shl nuw i64 %90, 60
  %92 = or i64 %91, %.120
  br label %.loopexit

default.unreachable:                              ; preds = %1
  unreachable

.loopexit:                                        ; preds = %68, %40, %1, %86, %28, %16
  %.0 = phi i64 [ %92, %86 ], [ %39, %28 ], [ %27, %16 ], [ 0, %1 ], [ %50, %40 ], [ %74, %68 ]
  ret i64 %.0
}